; Function Attrs: mustprogress uwtable
define noundef zeroext i1 @_ZN3g2o12VertexLine2D4readERSi(ptr noundef nonnull align 16 dereferenceable(208) %0, ptr noundef nonnull align 8 dereferenceable(16) %1) unnamed_addr #4 align 2 personality ptr @__gxx_personality_v0 {
  %3 = getelementptr inbounds nuw i8, ptr %0, i64 160
  %4 = tail call noundef nonnull align 8 dereferenceable(16) ptr @_ZNSi10_M_extractIdEERSiRT_(ptr noundef nonnull align 8 dereferenceable(16) %1, ptr noundef nonnull align 8 dereferenceable(8) %3)
  %5 = getelementptr inbounds nuw i8, ptr %0, i64 168
  %6 = tail call noundef nonnull align 8 dereferenceable(16) ptr @_ZNSi10_M_extractIdEERSiRT_(ptr noundef nonnull align 8 dereferenceable(16) %4, ptr noundef nonnull align 8 dereferenceable(8) %5)
  %7 = getelementptr inbounds nuw i8, ptr %0, i64 200
  %8 = tail call noundef nonnull align 8 dereferenceable(16) ptr @_ZNSirsERi(ptr noundef nonnull align 8 dereferenceable(16) %6, ptr noundef nonnull align 4 dereferenceable(4) %7)
  %9 = getelementptr inbounds nuw i8, ptr %0, i64 204
  %10 = tail call noundef nonnull align 8 dereferenceable(16) ptr @_ZNSirsERi(ptr noundef nonnull align 8 dereferenceable(16) %8, ptr noundef nonnull align 4 dereferenceable(4) %9)
  ret i1 true
}